target datalayout = "e-m:e-p270:32:32-p271:32:32-p272:64:64-i64:64-i128:128-f80:128-n8:16:32:64-S128"
target triple = "x86_64-pc-linux-gnu"

%struct.AV1RawSequenceHeader = type { i8, i8, i8, i8, i8, i8, i8, %struct.AV1RawTimingInfo, %struct.AV1RawDecoderModelInfo, [32 x i16], [32 x i8], [32 x i8], [32 x i8], [32 x i32], [32 x i32], [32 x i8], [32 x i8], [32 x i8], i8, i8, i16, i16, i8, i8, i8, i8, i8, i8, i8, i8, i8, i8, i8, i8, i8, i8, i8, i8, i8, i8, i8, i8, i8, %struct.AV1RawColorConfig, i8 }
%struct.AV1RawTimingInfo = type { i32, i32, i8, i32 }
%struct.AV1RawDecoderModelInfo = type { i8, i32, i8, i8 }
%struct.AV1RawColorConfig = type { i8, i8, i8, i8, i8, i8, i8, i8, i8, i8, i8, i8 }

@.str.11 = private unnamed_addr constant [25 x i8] c"Unknown AV1 profile %d.\0A\00", align 1
@.str.12 = private unnamed_addr constant [30 x i8] c"Assertion %s failed at %s:%d\0A\00", align 1
@.str.13 = private unnamed_addr constant [2 x i8] c"0\00", align 1
@.str.14 = private unnamed_addr constant [20 x i8] c"libavcodec/av1dec.c\00", align 1

; Function Attrs: nounwind uwtable
define internal i32 @get_sw_pixel_format(ptr noundef %0, ptr noundef %1) #1 {
  %3 = alloca i32, align 4
  %4 = alloca ptr, align 8
  %5 = alloca ptr, align 8
  %6 = alloca i32, align 4
  %7 = alloca i32, align 4
  %8 = alloca i32, align 4
  store ptr %0, ptr %4, align 8, !tbaa !132
  store ptr %1, ptr %5, align 8, !tbaa !75
  call void @llvm.lifetime.start.p0(i64 4, ptr %6) #11
  call void @llvm.lifetime.start.p0(i64 4, ptr %7) #11
  store i32 -1, ptr %7, align 4, !tbaa !62
  %9 = load ptr, ptr %5, align 8, !tbaa !75
  %10 = getelementptr inbounds nuw %struct.AV1RawSequenceHeader, ptr %9, i32 0, i32 0
  %11 = load i8, ptr %10, align 4, !tbaa !109
  %12 = zext i8 %11 to i32
  %13 = icmp eq i32 %12, 2
  br i1 %13, label %14, label %29

14:                                               ; preds = %2
  %15 = load ptr, ptr %5, align 8, !tbaa !75
  %16 = getelementptr inbounds nuw %struct.AV1RawSequenceHeader, ptr %15, i32 0, i32 43
  %17 = getelementptr inbounds nuw %struct.AV1RawColorConfig, ptr %16, i32 0, i32 0
  %18 = load i8, ptr %17, align 1, !tbaa !133
  %19 = zext i8 %18 to i32
  %20 = icmp ne i32 %19, 0
  br i1 %20, label %21, label %29

21:                                               ; preds = %14
  %22 = load ptr, ptr %5, align 8, !tbaa !75
  %23 = getelementptr inbounds nuw %struct.AV1RawSequenceHeader, ptr %22, i32 0, i32 43
  %24 = getelementptr inbounds nuw %struct.AV1RawColorConfig, ptr %23, i32 0, i32 1
  %25 = load i8, ptr %24, align 1, !tbaa !134
  %26 = zext i8 %25 to i32
  %27 = icmp ne i32 %26, 0
  %28 = select i1 %27, i32 12, i32 10
  store i32 %28, ptr %6, align 4, !tbaa !62
  br label %50

29:                                               ; preds = %14, %2
  %30 = load ptr, ptr %5, align 8, !tbaa !75
  %31 = getelementptr inbounds nuw %struct.AV1RawSequenceHeader, ptr %30, i32 0, i32 0
  %32 = load i8, ptr %31, align 4, !tbaa !109
  %33 = zext i8 %32 to i32
  %34 = icmp sle i32 %33, 2
  br i1 %34, label %35, label %43

35:                                               ; preds = %29
  %36 = load ptr, ptr %5, align 8, !tbaa !75
  %37 = getelementptr inbounds nuw %struct.AV1RawSequenceHeader, ptr %36, i32 0, i32 43
  %38 = getelementptr inbounds nuw %struct.AV1RawColorConfig, ptr %37, i32 0, i32 0
  %39 = load i8, ptr %38, align 1, !tbaa !133
  %40 = zext i8 %39 to i32
  %41 = icmp ne i32 %40, 0
  %42 = select i1 %41, i32 10, i32 8
  store i32 %42, ptr %6, align 4, !tbaa !62
  br label %49

43:                                               ; preds = %29
  %44 = load ptr, ptr %4, align 8, !tbaa !132
  %45 = load ptr, ptr %5, align 8, !tbaa !75
  %46 = getelementptr inbounds nuw %struct.AV1RawSequenceHeader, ptr %45, i32 0, i32 0
  %47 = load i8, ptr %46, align 4, !tbaa !109
  %48 = zext i8 %47 to i32
  call void (ptr, i32, ptr, ...) @av_log(ptr noundef %44, i32 noundef 16, ptr noundef @.str.11, i32 noundef %48)
  store i32 -1, ptr %3, align 4
  store i32 1, ptr %8, align 4
  br label %179

49:                                               ; preds = %35
  br label %50

50:                                               ; preds = %49, %21
  %51 = load ptr, ptr %5, align 8, !tbaa !75
  %52 = getelementptr inbounds nuw %struct.AV1RawSequenceHeader, ptr %51, i32 0, i32 43
  %53 = getelementptr inbounds nuw %struct.AV1RawColorConfig, ptr %52, i32 0, i32 2
  %54 = load i8, ptr %53, align 1, !tbaa !135
  %55 = icmp ne i8 %54, 0
  br i1 %55, label %158, label %56

56:                                               ; preds = %50
  %57 = load ptr, ptr %5, align 8, !tbaa !75
  %58 = getelementptr inbounds nuw %struct.AV1RawSequenceHeader, ptr %57, i32 0, i32 43
  %59 = getelementptr inbounds nuw %struct.AV1RawColorConfig, ptr %58, i32 0, i32 8
  %60 = load i8, ptr %59, align 1, !tbaa !136
  %61 = zext i8 %60 to i32
  %62 = icmp eq i32 %61, 0
  br i1 %62, label %63, label %89

63:                                               ; preds = %56
  %64 = load ptr, ptr %5, align 8, !tbaa !75
  %65 = getelementptr inbounds nuw %struct.AV1RawSequenceHeader, ptr %64, i32 0, i32 43
  %66 = getelementptr inbounds nuw %struct.AV1RawColorConfig, ptr %65, i32 0, i32 9
  %67 = load i8, ptr %66, align 1, !tbaa !137
  %68 = zext i8 %67 to i32
  %69 = icmp eq i32 %68, 0
  br i1 %69, label %70, label %89

70:                                               ; preds = %63
  %71 = load i32, ptr %6, align 4, !tbaa !62
  %72 = icmp eq i32 %71, 8
  br i1 %72, label %73, label %74

73:                                               ; preds = %70
  store i32 5, ptr %7, align 4, !tbaa !62
  br label %88

74:                                               ; preds = %70
  %75 = load i32, ptr %6, align 4, !tbaa !62
  %76 = icmp eq i32 %75, 10
  br i1 %76, label %77, label %78

77:                                               ; preds = %74
  store i32 68, ptr %7, align 4, !tbaa !62
  br label %87

78:                                               ; preds = %74
  %79 = load i32, ptr %6, align 4, !tbaa !62
  %80 = icmp eq i32 %79, 12
  br i1 %80, label %81, label %82

81:                                               ; preds = %78
  store i32 131, ptr %7, align 4, !tbaa !62
  br label %86

82:                                               ; preds = %78
  br label %83

83:                                               ; preds = %82
  call void (ptr, i32, ptr, ...) @av_log(ptr noundef null, i32 noundef 0, ptr noundef @.str.12, ptr noundef @.str.13, ptr noundef @.str.14, i32 noundef 498)
  call void @abort() #12
  unreachable

84:                                               ; No predecessors!
  br label %85

85:                                               ; preds = %84
  br label %86

86:                                               ; preds = %85, %81
  br label %87

87:                                               ; preds = %86, %77
  br label %88

88:                                               ; preds = %87, %73
  br label %157

89:                                               ; preds = %63, %56
  %90 = load ptr, ptr %5, align 8, !tbaa !75
  %91 = getelementptr inbounds nuw %struct.AV1RawSequenceHeader, ptr %90, i32 0, i32 43
  %92 = getelementptr inbounds nuw %struct.AV1RawColorConfig, ptr %91, i32 0, i32 8
  %93 = load i8, ptr %92, align 1, !tbaa !136
  %94 = zext i8 %93 to i32
  %95 = icmp eq i32 %94, 1
  br i1 %95, label %96, label %122

96:                                               ; preds = %89
  %97 = load ptr, ptr %5, align 8, !tbaa !75
  %98 = getelementptr inbounds nuw %struct.AV1RawSequenceHeader, ptr %97, i32 0, i32 43
  %99 = getelementptr inbounds nuw %struct.AV1RawColorConfig, ptr %98, i32 0, i32 9
  %100 = load i8, ptr %99, align 1, !tbaa !137
  %101 = zext i8 %100 to i32
  %102 = icmp eq i32 %101, 0
  br i1 %102, label %103, label %122

103:                                              ; preds = %96
  %104 = load i32, ptr %6, align 4, !tbaa !62
  %105 = icmp eq i32 %104, 8
  br i1 %105, label %106, label %107

106:                                              ; preds = %103
  store i32 4, ptr %7, align 4, !tbaa !62
  br label %121

107:                                              ; preds = %103
  %108 = load i32, ptr %6, align 4, !tbaa !62
  %109 = icmp eq i32 %108, 10
  br i1 %109, label %110, label %111

110:                                              ; preds = %107
  store i32 64, ptr %7, align 4, !tbaa !62
  br label %120

111:                                              ; preds = %107
  %112 = load i32, ptr %6, align 4, !tbaa !62
  %113 = icmp eq i32 %112, 12
  br i1 %113, label %114, label %115

114:                                              ; preds = %111
  store i32 127, ptr %7, align 4, !tbaa !62
  br label %119

115:                                              ; preds = %111
  br label %116

116:                                              ; preds = %115
  call void (ptr, i32, ptr, ...) @av_log(ptr noundef null, i32 noundef 0, ptr noundef @.str.12, ptr noundef @.str.13, ptr noundef @.str.14, i32 noundef 508)
  call void @abort() #12
  unreachable

117:                                              ; No predecessors!
  br label %118

118:                                              ; preds = %117
  br label %119

119:                                              ; preds = %118, %114
  br label %120

120:                                              ; preds = %119, %110
  br label %121

121:                                              ; preds = %120, %106
  br label %156

122:                                              ; preds = %96, %89
  %123 = load ptr, ptr %5, align 8, !tbaa !75
  %124 = getelementptr inbounds nuw %struct.AV1RawSequenceHeader, ptr %123, i32 0, i32 43
  %125 = getelementptr inbounds nuw %struct.AV1RawColorConfig, ptr %124, i32 0, i32 8
  %126 = load i8, ptr %125, align 1, !tbaa !136
  %127 = zext i8 %126 to i32
  %128 = icmp eq i32 %127, 1
  br i1 %128, label %129, label %155

129:                                              ; preds = %122
  %130 = load ptr, ptr %5, align 8, !tbaa !75
  %131 = getelementptr inbounds nuw %struct.AV1RawSequenceHeader, ptr %130, i32 0, i32 43
  %132 = getelementptr inbounds nuw %struct.AV1RawColorConfig, ptr %131, i32 0, i32 9
  %133 = load i8, ptr %132, align 1, !tbaa !137
  %134 = zext i8 %133 to i32
  %135 = icmp eq i32 %134, 1
  br i1 %135, label %136, label %155

136:                                              ; preds = %129
  %137 = load i32, ptr %6, align 4, !tbaa !62
  %138 = icmp eq i32 %137, 8
  br i1 %138, label %139, label %140

139:                                              ; preds = %136
  store i32 0, ptr %7, align 4, !tbaa !62
  br label %154

140:                                              ; preds = %136
  %141 = load i32, ptr %6, align 4, !tbaa !62
  %142 = icmp eq i32 %141, 10
  br i1 %142, label %143, label %144

143:                                              ; preds = %140
  store i32 62, ptr %7, align 4, !tbaa !62
  br label %153

144:                                              ; preds = %140
  %145 = load i32, ptr %6, align 4, !tbaa !62
  %146 = icmp eq i32 %145, 12
  br i1 %146, label %147, label %148

147:                                              ; preds = %144
  store i32 123, ptr %7, align 4, !tbaa !62
  br label %152

148:                                              ; preds = %144
  br label %149

149:                                              ; preds = %148
  call void (ptr, i32, ptr, ...) @av_log(ptr noundef null, i32 noundef 0, ptr noundef @.str.12, ptr noundef @.str.13, ptr noundef @.str.14, i32 noundef 518)
  call void @abort() #12
  unreachable

150:                                              ; No predecessors!
  br label %151

151:                                              ; preds = %150
  br label %152

152:                                              ; preds = %151, %147
  br label %153

153:                                              ; preds = %152, %143
  br label %154

154:                                              ; preds = %153, %139
  br label %155

155:                                              ; preds = %154, %129, %122
  br label %156

156:                                              ; preds = %155, %121
  br label %157

157:                                              ; preds = %156, %88
  br label %177

158:                                              ; preds = %50
  %159 = load i32, ptr %6, align 4, !tbaa !62
  %160 = icmp eq i32 %159, 8
  br i1 %160, label %161, label %162

161:                                              ; preds = %158
  store i32 8, ptr %7, align 4, !tbaa !62
  br label %176

162:                                              ; preds = %158
  %163 = load i32, ptr %6, align 4, !tbaa !62
  %164 = icmp eq i32 %163, 10
  br i1 %164, label %165, label %166

165:                                              ; preds = %162
  store i32 168, ptr %7, align 4, !tbaa !62
  br label %175

166:                                              ; preds = %162
  %167 = load i32, ptr %6, align 4, !tbaa !62
  %168 = icmp eq i32 %167, 12
  br i1 %168, label %169, label %170

169:                                              ; preds = %166
  store i32 166, ptr %7, align 4, !tbaa !62
  br label %174

170:                                              ; preds = %166
  br label %171

171:                                              ; preds = %170
  call void (ptr, i32, ptr, ...) @av_log(ptr noundef null, i32 noundef 0, ptr noundef @.str.12, ptr noundef @.str.13, ptr noundef @.str.14, i32 noundef 528)
  call void @abort() #12
  unreachable

172:                                              ; No predecessors!
  br label %173

173:                                              ; preds = %172
  br label %174

174:                                              ; preds = %173, %169
  br label %175

175:                                              ; preds = %174, %165
  br label %176

176:                                              ; preds = %175, %161
  br label %177

177:                                              ; preds = %176, %157
  %178 = load i32, ptr %7, align 4, !tbaa !62
  store i32 %178, ptr %3, align 4
  store i32 1, ptr %8, align 4
  br label %179

179:                                              ; preds = %177, %43
  call void @llvm.lifetime.end.p0(i64 4, ptr %7) #11
  call void @llvm.lifetime.end.p0(i64 4, ptr %6) #11
  %180 = load i32, ptr %3, align 4
  ret i32 %180
}