; Function Attrs: nounwind uwtable
define internal fastcc range(i32 -1, 169) i32 @get_sw_pixel_format(ptr noundef %0, ptr noundef readonly captures(none) %1) unnamed_addr #1 {
  %3 = load i8, ptr %1, align 4, !tbaa !208
  %4 = icmp eq i8 %3, 2
  br i1 %4, label %5, label %12

5:                                                ; preds = %2
  %6 = getelementptr inbounds nuw i8, ptr %1, i64 575
  %7 = load i8, ptr %6, align 1, !tbaa !227
  %.not = icmp eq i8 %7, 0
  br i1 %.not, label %.thread, label %8

8:                                                ; preds = %5
  %9 = getelementptr inbounds nuw i8, ptr %1, i64 576
  %10 = load i8, ptr %9, align 1, !tbaa !228
  %.not31 = icmp eq i8 %10, 0
  %11 = select i1 %.not31, i32 10, i32 12
  br label %.thread

12:                                               ; preds = %2
  %13 = icmp ult i8 %3, 3
  br i1 %13, label %..thread_crit_edge, label %16

..thread_crit_edge:                               ; preds = %12
  %.phi.trans.insert = getelementptr inbounds nuw i8, ptr %1, i64 575
  %.pre = load i8, ptr %.phi.trans.insert, align 1, !tbaa !227
  %14 = icmp eq i8 %.pre, 0
  %15 = select i1 %14, i32 8, i32 10
  br label %.thread

16:                                               ; preds = %12
  %17 = zext i8 %3 to i32
  tail call void (ptr, i32, ptr, ...) @av_log(ptr noundef %0, i32 noundef 16, ptr noundef nonnull @.str.11, i32 noundef %17) #9
  br label %.thread38

.thread:                                          ; preds = %5, %..thread_crit_edge, %8
  %.027 = phi i32 [ %11, %8 ], [ %15, %..thread_crit_edge ], [ 8, %5 ]
  %18 = getelementptr inbounds nuw i8, ptr %1, i64 577
  %19 = load i8, ptr %18, align 1, !tbaa !229
  %.not32 = icmp eq i8 %19, 0
  br i1 %.not32, label %20, label %switch.lookup47

20:                                               ; preds = %.thread
  %21 = getelementptr inbounds nuw i8, ptr %1, i64 583
  %22 = load i8, ptr %21, align 1, !tbaa !230
  switch i8 %22, label %.thread38 [
    i8 0, label %23
    i8 1, label %28
  ]

23:                                               ; preds = %20
  %24 = getelementptr inbounds nuw i8, ptr %1, i64 584
  %25 = load i8, ptr %24, align 1, !tbaa !231
  %26 = icmp eq i8 %25, 0
  br i1 %26, label %switch.lookup, label %.thread38

switch.lookup:                                    ; preds = %23
  %switch.tableidx = add nsw i32 %.027, -8
  %27 = zext nneg i32 %switch.tableidx to i64
  %switch.gep = getelementptr inbounds nuw [5 x i32], ptr @switch.table.get_sw_pixel_format, i64 0, i64 %27
  %switch.load = load i32, ptr %switch.gep, align 4
  br label %.thread38

28:                                               ; preds = %20
  %29 = getelementptr inbounds nuw i8, ptr %1, i64 584
  %30 = load i8, ptr %29, align 1, !tbaa !231
  switch i8 %30, label %.thread38 [
    i8 0, label %switch.lookup39
    i8 1, label %switch.lookup43
  ]

switch.lookup39:                                  ; preds = %28
  %switch.tableidx40 = add nsw i32 %.027, -8
  %31 = zext nneg i32 %switch.tableidx40 to i64
  %switch.gep41 = getelementptr inbounds nuw [5 x i32], ptr @switch.table.get_sw_pixel_format.5, i64 0, i64 %31
  %switch.load42 = load i32, ptr %switch.gep41, align 4
  br label %.thread38

switch.lookup43:                                  ; preds = %28
  %switch.tableidx44 = add nsw i32 %.027, -8
  %32 = zext nneg i32 %switch.tableidx44 to i64
  %switch.gep45 = getelementptr inbounds nuw [5 x i32], ptr @switch.table.get_sw_pixel_format.6, i64 0, i64 %32
  %switch.load46 = load i32, ptr %switch.gep45, align 4
  br label %.thread38

switch.lookup47:                                  ; preds = %.thread
  %switch.tableidx48 = add nsw i32 %.027, -8
  %33 = zext nneg i32 %switch.tableidx48 to i64
  %switch.gep49 = getelementptr inbounds nuw [5 x i32], ptr @switch.table.get_sw_pixel_format.7, i64 0, i64 %33
  %switch.load50 = load i32, ptr %switch.gep49, align 4
  br label %.thread38

.thread38:                                        ; preds = %switch.lookup47, %switch.lookup43, %switch.lookup39, %switch.lookup, %28, %20, %23, %16
  %.028 = phi i32 [ -1, %16 ], [ -1, %23 ], [ -1, %20 ], [ -1, %28 ], [ %switch.load, %switch.lookup ], [ %switch.load42, %switch.lookup39 ], [ %switch.load46, %switch.lookup43 ], [ %switch.load50, %switch.lookup47 ]
  ret i32 %.028
}